; ModuleID = '31/1290.c'
source_filename = "31/1290.c"
target datalayout = "e-m:e-p270:32:32-p271:32:32-p272:64:64-i64:64-f80:128-n8:16:32:64-S128"
target triple = "x86_64-pc-linux-gnu"

%struct.stu = type { [30 x i8], [30 x i8], i8, i32, float, [30 x i8], %struct.stu* }

@p2 = common dso_local global %struct.stu* null, align 8
@p1 = common dso_local global %struct.stu* null, align 8
@.str = private unnamed_addr constant [4 x i8] c"%s \00", align 1
@.str.1 = private unnamed_addr constant [3 x i8] c"%c\00", align 1
@.str.2 = private unnamed_addr constant [3 x i8] c"%d\00", align 1
@.str.3 = private unnamed_addr constant [3 x i8] c"%g\00", align 1
@.str.4 = private unnamed_addr constant [3 x i8] c"%s\00", align 1
@head = common dso_local global %struct.stu* null, align 8
@.str.5 = private unnamed_addr constant [4 x i8] c" %d\00", align 1
@.str.6 = private unnamed_addr constant [4 x i8] c" %g\00", align 1
@.str.7 = private unnamed_addr constant [4 x i8] c" %s\00", align 1
@.str.8 = private unnamed_addr constant [2 x i8] c"\0A\00", align 1

; Function Attrs: noinline nounwind uwtable
define dso_local i32 @main() #0 {
  %1 = alloca i32, align 4
  store i32 0, i32* %1, align 4
  %2 = call noalias i8* @malloc(i64 112) #3
  %3 = bitcast i8* %2 to %struct.stu*
  store %struct.stu* %3, %struct.stu** @p2, align 8
  store %struct.stu* %3, %struct.stu** @p1, align 8
  %4 = load %struct.stu*, %struct.stu** @p1, align 8
  %5 = getelementptr inbounds %struct.stu, %struct.stu* %4, i32 0, i32 0
  %6 = getelementptr inbounds [30 x i8], [30 x i8]* %5, i64 0, i64 0
  %7 = call i32 (i8*, ...) @__isoc99_scanf(i8* getelementptr inbounds ([4 x i8], [4 x i8]* @.str, i64 0, i64 0), i8* %6)
  %8 = load %struct.stu*, %struct.stu** @p1, align 8
  %9 = getelementptr inbounds %struct.stu, %struct.stu* %8, i32 0, i32 1
  %10 = getelementptr inbounds [30 x i8], [30 x i8]* %9, i64 0, i64 0
  %11 = call i32 (i8*, ...) @__isoc99_scanf(i8* getelementptr inbounds ([4 x i8], [4 x i8]* @.str, i64 0, i64 0), i8* %10)
  %12 = load %struct.stu*, %struct.stu** @p1, align 8
  %13 = getelementptr inbounds %struct.stu, %struct.stu* %12, i32 0, i32 2
  %14 = call i32 (i8*, ...) @__isoc99_scanf(i8* getelementptr inbounds ([3 x i8], [3 x i8]* @.str.1, i64 0, i64 0), i8* %13)
  %15 = load %struct.stu*, %struct.stu** @p1, align 8
  %16 = getelementptr inbounds %struct.stu, %struct.stu* %15, i32 0, i32 3
  %17 = call i32 (i8*, ...) @__isoc99_scanf(i8* getelementptr inbounds ([3 x i8], [3 x i8]* @.str.2, i64 0, i64 0), i32* %16)
  %18 = load %struct.stu*, %struct.stu** @p1, align 8
  %19 = getelementptr inbounds %struct.stu, %struct.stu* %18, i32 0, i32 4
  %20 = call i32 (i8*, ...) @__isoc99_scanf(i8* getelementptr inbounds ([3 x i8], [3 x i8]* @.str.3, i64 0, i64 0), float* %19)
  %21 = load %struct.stu*, %struct.stu** @p1, align 8
  %22 = getelementptr inbounds %struct.stu, %struct.stu* %21, i32 0, i32 5
  %23 = getelementptr inbounds [30 x i8], [30 x i8]* %22, i64 0, i64 0
  %24 = call i32 (i8*, ...) @__isoc99_scanf(i8* getelementptr inbounds ([3 x i8], [3 x i8]* @.str.4, i64 0, i64 0), i8* %23)
  %25 = load %struct.stu*, %struct.stu** @p1, align 8
  store %struct.stu* %25, %struct.stu** @head, align 8
  %26 = load %struct.stu*, %struct.stu** @head, align 8
  %27 = getelementptr inbounds %struct.stu, %struct.stu* %26, i32 0, i32 6
  store %struct.stu* null, %struct.stu** %27, align 8
  br label %28

28:                                               ; preds = %61, %0
  %29 = call noalias i8* @malloc(i64 112) #3
  %30 = bitcast i8* %29 to %struct.stu*
  store %struct.stu* %30, %struct.stu** @p1, align 8
  %31 = load %struct.stu*, %struct.stu** @p1, align 8
  %32 = load %struct.stu*, %struct.stu** @p2, align 8
  %33 = getelementptr inbounds %struct.stu, %struct.stu* %32, i32 0, i32 6
  store %struct.stu* %31, %struct.stu** %33, align 8
  %34 = load %struct.stu*, %struct.stu** @p1, align 8
  %35 = getelementptr inbounds %struct.stu, %struct.stu* %34, i32 0, i32 0
  %36 = getelementptr inbounds [30 x i8], [30 x i8]* %35, i64 0, i64 0
  %37 = call i32 (i8*, ...) @__isoc99_scanf(i8* getelementptr inbounds ([3 x i8], [3 x i8]* @.str.4, i64 0, i64 0), i8* %36)
  %38 = load %struct.stu*, %struct.stu** @p1, align 8
  %39 = getelementptr inbounds %struct.stu, %struct.stu* %38, i32 0, i32 0
  %40 = getelementptr inbounds [30 x i8], [30 x i8]* %39, i64 0, i64 0
  %41 = load i8, i8* %40, align 8
  %42 = sext i8 %41 to i32
  %43 = icmp eq i32 %42, 101
  br i1 %43, label %44, label %61

44:                                               ; preds = %28
  %45 = load %struct.stu*, %struct.stu** @p1, align 8
  %46 = getelementptr inbounds %struct.stu, %struct.stu* %45, i32 0, i32 0
  %47 = getelementptr inbounds [30 x i8], [30 x i8]* %46, i64 0, i64 1
  %48 = load i8, i8* %47, align 1
  %49 = sext i8 %48 to i32
  %50 = icmp eq i32 %49, 110
  br i1 %50, label %51, label %61

51:                                               ; preds = %44
  %52 = load %struct.stu*, %struct.stu** @p1, align 8
  %53 = getelementptr inbounds %struct.stu, %struct.stu* %52, i32 0, i32 0
  %54 = getelementptr inbounds [30 x i8], [30 x i8]* %53, i64 0, i64 2
  %55 = load i8, i8* %54, align 2
  %56 = sext i8 %55 to i32
  %57 = icmp eq i32 %56, 100
  br i1 %57, label %58, label %61

58:                                               ; preds = %51
  %59 = load %struct.stu*, %struct.stu** @p2, align 8
  %60 = getelementptr inbounds %struct.stu, %struct.stu* %59, i32 0, i32 6
  store %struct.stu* null, %struct.stu** %60, align 8
  br label %80

61:                                               ; preds = %51, %44, %28
  %62 = load %struct.stu*, %struct.stu** @p1, align 8
  %63 = getelementptr inbounds %struct.stu, %struct.stu* %62, i32 0, i32 1
  %64 = getelementptr inbounds [30 x i8], [30 x i8]* %63, i64 0, i64 0
  %65 = call i32 (i8*, ...) @__isoc99_scanf(i8* getelementptr inbounds ([4 x i8], [4 x i8]* @.str, i64 0, i64 0), i8* %64)
  %66 = load %struct.stu*, %struct.stu** @p1, align 8
  %67 = getelementptr inbounds %struct.stu, %struct.stu* %66, i32 0, i32 2
  %68 = call i32 (i8*, ...) @__isoc99_scanf(i8* getelementptr inbounds ([3 x i8], [3 x i8]* @.str.1, i64 0, i64 0), i8* %67)
  %69 = load %struct.stu*, %struct.stu** @p1, align 8
  %70 = getelementptr inbounds %struct.stu, %struct.stu* %69, i32 0, i32 3
  %71 = call i32 (i8*, ...) @__isoc99_scanf(i8* getelementptr inbounds ([3 x i8], [3 x i8]* @.str.2, i64 0, i64 0), i32* %70)
  %72 = load %struct.stu*, %struct.stu** @p1, align 8
  %73 = getelementptr inbounds %struct.stu, %struct.stu* %72, i32 0, i32 4
  %74 = call i32 (i8*, ...) @__isoc99_scanf(i8* getelementptr inbounds ([3 x i8], [3 x i8]* @.str.3, i64 0, i64 0), float* %73)
  %75 = load %struct.stu*, %struct.stu** @p1, align 8
  %76 = getelementptr inbounds %struct.stu, %struct.stu* %75, i32 0, i32 5
  %77 = getelementptr inbounds [30 x i8], [30 x i8]* %76, i64 0, i64 0
  %78 = call i32 (i8*, ...) @__isoc99_scanf(i8* getelementptr inbounds ([3 x i8], [3 x i8]* @.str.4, i64 0, i64 0), i8* %77)
  %79 = load %struct.stu*, %struct.stu** @p1, align 8
  store %struct.stu* %79, %struct.stu** @p2, align 8
  br label %28

80:                                               ; preds = %58
  %81 = load %struct.stu*, %struct.stu** @head, align 8
  call void @result(%struct.stu* %81)
  ret i32 0
}

; Function Attrs: nounwind
declare dso_local noalias i8* @malloc(i64) #1

declare dso_local i32 @__isoc99_scanf(i8*, ...) #2

; Function Attrs: noinline nounwind uwtable
define dso_local void @result(%struct.stu* %0) #0 {
  %2 = alloca %struct.stu*, align 8
  store %struct.stu* %0, %struct.stu** %2, align 8
  %3 = load %struct.stu*, %struct.stu** %2, align 8
  %4 = getelementptr inbounds %struct.stu, %struct.stu* %3, i32 0, i32 6
  %5 = load %struct.stu*, %struct.stu** %4, align 8
  %6 = icmp eq %struct.stu* %5, null
  br i1 %6, label %7, label %35

7:                                                ; preds = %1
  %8 = load %struct.stu*, %struct.stu** %2, align 8
  %9 = getelementptr inbounds %struct.stu, %struct.stu* %8, i32 0, i32 0
  %10 = getelementptr inbounds [30 x i8], [30 x i8]* %9, i64 0, i64 0
  %11 = call i32 (i8*, ...) @printf(i8* getelementptr inbounds ([4 x i8], [4 x i8]* @.str, i64 0, i64 0), i8* %10)
  %12 = load %struct.stu*, %struct.stu** %2, align 8
  %13 = getelementptr inbounds %struct.stu, %struct.stu* %12, i32 0, i32 1
  %14 = getelementptr inbounds [30 x i8], [30 x i8]* %13, i64 0, i64 0
  %15 = call i32 (i8*, ...) @printf(i8* getelementptr inbounds ([4 x i8], [4 x i8]* @.str, i64 0, i64 0), i8* %14)
  %16 = load %struct.stu*, %struct.stu** %2, align 8
  %17 = getelementptr inbounds %struct.stu, %struct.stu* %16, i32 0, i32 2
  %18 = load i8, i8* %17, align 4
  %19 = sext i8 %18 to i32
  %20 = call i32 (i8*, ...) @printf(i8* getelementptr inbounds ([3 x i8], [3 x i8]* @.str.1, i64 0, i64 0), i32 %19)
  %21 = load %struct.stu*, %struct.stu** %2, align 8
  %22 = getelementptr inbounds %struct.stu, %struct.stu* %21, i32 0, i32 3
  %23 = load i32, i32* %22, align 8
  %24 = call i32 (i8*, ...) @printf(i8* getelementptr inbounds ([4 x i8], [4 x i8]* @.str.5, i64 0, i64 0), i32 %23)
  %25 = load %struct.stu*, %struct.stu** %2, align 8
  %26 = getelementptr inbounds %struct.stu, %struct.stu* %25, i32 0, i32 4
  %27 = load float, float* %26, align 4
  %28 = fpext float %27 to double
  %29 = call i32 (i8*, ...) @printf(i8* getelementptr inbounds ([4 x i8], [4 x i8]* @.str.6, i64 0, i64 0), double %28)
  %30 = load %struct.stu*, %struct.stu** %2, align 8
  %31 = getelementptr inbounds %struct.stu, %struct.stu* %30, i32 0, i32 5
  %32 = getelementptr inbounds [30 x i8], [30 x i8]* %31, i64 0, i64 0
  %33 = call i32 (i8*, ...) @printf(i8* getelementptr inbounds ([4 x i8], [4 x i8]* @.str.7, i64 0, i64 0), i8* %32)
  %34 = call i32 (i8*, ...) @printf(i8* getelementptr inbounds ([2 x i8], [2 x i8]* @.str.8, i64 0, i64 0))
  br label %65

35:                                               ; preds = %1
  %36 = load %struct.stu*, %struct.stu** %2, align 8
  %37 = getelementptr inbounds %struct.stu, %struct.stu* %36, i32 0, i32 6
  %38 = load %struct.stu*, %struct.stu** %37, align 8
  call void @result(%struct.stu* %38)
  %39 = load %struct.stu*, %struct.stu** %2, align 8
  %40 = getelementptr inbounds %struct.stu, %struct.stu* %39, i32 0, i32 0
  %41 = getelementptr inbounds [30 x i8], [30 x i8]* %40, i64 0, i64 0
  %42 = call i32 (i8*, ...) @printf(i8* getelementptr inbounds ([4 x i8], [4 x i8]* @.str, i64 0, i64 0), i8* %41)
  %43 = load %struct.stu*, %struct.stu** %2, align 8
  %44 = getelementptr inbounds %struct.stu, %struct.stu* %43, i32 0, i32 1
  %45 = getelementptr inbounds [30 x i8], [30 x i8]* %44, i64 0, i64 0
  %46 = call i32 (i8*, ...) @printf(i8* getelementptr inbounds ([4 x i8], [4 x i8]* @.str, i64 0, i64 0), i8* %45)
  %47 = load %struct.stu*, %struct.stu** %2, align 8
  %48 = getelementptr inbounds %struct.stu, %struct.stu* %47, i32 0, i32 2
  %49 = load i8, i8* %48, align 4
  %50 = sext i8 %49 to i32
  %51 = call i32 (i8*, ...) @printf(i8* getelementptr inbounds ([3 x i8], [3 x i8]* @.str.1, i64 0, i64 0), i32 %50)
  %52 = load %struct.stu*, %struct.stu** %2, align 8
  %53 = getelementptr inbounds %struct.stu, %struct.stu* %52, i32 0, i32 3
  %54 = load i32, i32* %53, align 8
  %55 = call i32 (i8*, ...) @printf(i8* getelementptr inbounds ([4 x i8], [4 x i8]* @.str.5, i64 0, i64 0), i32 %54)
  %56 = load %struct.stu*, %struct.stu** %2, align 8
  %57 = getelementptr inbounds %struct.stu, %struct.stu* %56, i32 0, i32 4
  %58 = load float, float* %57, align 4
  %59 = fpext float %58 to double
  %60 = call i32 (i8*, ...) @printf(i8* getelementptr inbounds ([4 x i8], [4 x i8]* @.str.6, i64 0, i64 0), double %59)
  %61 = load %struct.stu*, %struct.stu** %2, align 8
  %62 = getelementptr inbounds %struct.stu, %struct.stu* %61, i32 0, i32 5
  %63 = getelementptr inbounds [30 x i8], [30 x i8]* %62, i64 0, i64 0
  %64 = call i32 (i8*, ...) @printf(i8* getelementptr inbounds ([4 x i8], [4 x i8]* @.str.7, i64 0, i64 0), i8* %63)
  br label %65

65:                                               ; preds = %35, %7
  %66 = call i32 (i8*, ...) @printf(i8* getelementptr inbounds ([2 x i8], [2 x i8]* @.str.8, i64 0, i64 0))
  ret void
}

declare dso_local i32 @printf(i8*, ...) #2


!llvm.module.flags = !{!0}
!llvm.ident = !{!1}

!0 = !{i32 1, !"wchar_size", i32 4}
!1 = !{!"clang version 10.0.0-4ubuntu1 "}
